; Function Attrs: nounwind sspstrong uwtable
define internal fastcc void @encode_jd(i64 noundef %0, i32 noundef %1, ptr noundef nonnull writeonly captures(none) initializes((0, 8)) %2) unnamed_addr #0 {
  %4 = icmp eq i64 %0, 0
  %5 = and i64 %0, 7
  %6 = icmp ne i64 %5, 0
  %7 = or i1 %4, %6
  br i1 %7, label %8, label %rb_type.exit.i

8:                                                ; preds = %3
  %9 = tail call i64 @llvm.fshl.i64(i64 %0, i64 %0, i64 62)
  switch i64 %9, label %10 [
    i64 0, label %f_zero_p.exit
    i64 1, label %f_zero_p.exit
    i64 5, label %f_zero_p.exit
    i64 9, label %f_zero_p.exit
  ]

10:                                               ; preds = %8
  %11 = and i64 %0, 1
  %.not.i.i = icmp eq i64 %11, 0
  br i1 %.not.i.i, label %f_zero_p.exit, label %rb_type.exit.thread8.i

rb_type.exit.i:                                   ; preds = %3
  %12 = inttoptr i64 %0 to ptr
  %13 = load i64, ptr %12, align 8, !tbaa !35
  %14 = trunc i64 %13 to i32
  %15 = and i32 %14, 31
  switch i32 %15, label %f_zero_p.exit [
    i32 21, label %rb_type.exit.thread8.i
    i32 10, label %f_zero_p.exit.thread
    i32 15, label %17
  ]

rb_type.exit.thread8.i:                           ; preds = %rb_type.exit.i, %10
  %16 = icmp ult i64 %0, 2
  br i1 %16, label %f_zero_p.exit.thread9, label %f_zero_p.exit.thread

17:                                               ; preds = %rb_type.exit.i
  %18 = tail call i64 @rb_rational_num(i64 noundef %0) #24
  %or.cond = icmp eq i64 %18, 1
  br i1 %or.cond, label %f_zero_p.exit.thread9, label %f_zero_p.exit.thread

f_zero_p.exit:                                    ; preds = %8, %8, %8, %8, %10, %rb_type.exit.i
  %19 = load i64, ptr @id_eqeq_p, align 8, !tbaa !6
  %20 = tail call i64 (i64, i64, i32, ...) @rb_funcall(i64 noundef %0, i64 noundef %19, i32 noundef 1, i64 noundef 1) #21
  %.not = icmp eq i64 %20, 0
  br i1 %.not, label %f_zero_p.exit.thread, label %f_zero_p.exit.thread9

f_zero_p.exit.thread9:                            ; preds = %17, %rb_type.exit.thread8.i, %f_zero_p.exit
  %21 = sext i32 %1 to i64
  %22 = shl nsw i64 %21, 1
  %23 = or disjoint i64 %22, 1
  br label %29

f_zero_p.exit.thread:                             ; preds = %17, %rb_type.exit.i, %rb_type.exit.thread8.i, %f_zero_p.exit
  %24 = tail call i64 (i64, i64, i32, ...) @rb_funcall(i64 noundef 426895435, i64 noundef 42, i32 noundef 1, i64 noundef %0) #21
  %25 = sext i32 %1 to i64
  %26 = shl nsw i64 %25, 1
  %27 = or disjoint i64 %26, 1
  %28 = tail call i64 (i64, i64, i32, ...) @rb_funcall(i64 noundef %24, i64 noundef 43, i32 noundef 1, i64 noundef %27) #21
  br label %29

29:                                               ; preds = %f_zero_p.exit.thread, %f_zero_p.exit.thread9
  %storemerge = phi i64 [ %28, %f_zero_p.exit.thread ], [ %23, %f_zero_p.exit.thread9 ]
  store i64 %storemerge, ptr %2, align 8, !tbaa !6
  ret void
}